target datalayout = "e-m:e-p270:32:32-p271:32:32-p272:64:64-i64:64-i128:128-f80:128-n8:16:32:64-S128"
target triple = "x86_64-pc-linux-gnu"

%struct.b2Vec2 = type { float, float }
%struct.b2BodyId = type { i32, i16, i16 }
%struct.b2Rot = type { float, float }
%struct.b2WorldId = type { i16, i16 }
%struct.b2ShapeDef = type { ptr, float, float, float, float, i32, float, %struct.b2Filter, i32, i8, i8, i8, i8, i8, i8, i32 }
%struct.b2Filter = type { i64, i64, i32 }
%struct.b2BodyDef = type { i32, %struct.b2Vec2, %struct.b2Rot, %struct.b2Vec2, float, float, float, float, float, ptr, ptr, i8, i8, i8, i8, i8, i8, i32 }
%struct.b2ShapeId = type { i32, i16, i16 }
%struct.b2Polygon = type { [8 x %struct.b2Vec2], [8 x %struct.b2Vec2], %struct.b2Vec2, float, i32 }

; Function Attrs: nounwind uwtable
define void @CreateLargePyramid(i32 %0) #0 {
  %2 = alloca %struct.b2WorldId, align 2
  %3 = alloca i32, align 4
  %4 = alloca %struct.b2BodyDef, align 8
  %5 = alloca %struct.b2Vec2, align 4
  %6 = alloca %struct.b2BodyId, align 4
  %7 = alloca %struct.b2Polygon, align 4
  %8 = alloca %struct.b2ShapeDef, align 8
  %9 = alloca %struct.b2ShapeId, align 4
  %10 = alloca %struct.b2BodyDef, align 8
  %11 = alloca %struct.b2ShapeDef, align 8
  %12 = alloca float, align 4
  %13 = alloca %struct.b2Polygon, align 4
  %14 = alloca float, align 4
  %15 = alloca i32, align 4
  %16 = alloca i32, align 4
  %17 = alloca float, align 4
  %18 = alloca i32, align 4
  %19 = alloca float, align 4
  %20 = alloca %struct.b2Vec2, align 4
  %21 = alloca %struct.b2BodyId, align 4
  %22 = alloca %struct.b2ShapeId, align 4
  store i32 %0, ptr %2, align 2
  %23 = load i32, ptr %2, align 2
  call void @b2World_EnableSleeping(i32 %23, i1 noundef zeroext false)
  call void @llvm.lifetime.start.p0(i64 4, ptr %3) #9
  store i32 100, ptr %3, align 4, !tbaa !3
  call void @llvm.lifetime.start.p0(i64 80, ptr %4) #9
  call void @b2DefaultBodyDef(ptr dead_on_unwind writable sret(%struct.b2BodyDef) align 8 %4)
  %24 = getelementptr inbounds nuw %struct.b2BodyDef, ptr %4, i32 0, i32 1
  %25 = getelementptr inbounds nuw %struct.b2Vec2, ptr %5, i32 0, i32 0
  store float 0.000000e+00, ptr %25, align 4, !tbaa !24
  %26 = getelementptr inbounds nuw %struct.b2Vec2, ptr %5, i32 0, i32 1
  store float -1.000000e+00, ptr %26, align 4, !tbaa !25
  call void @llvm.memcpy.p0.p0.i64(ptr align 4 %24, ptr align 4 %5, i64 8, i1 false), !tbaa.struct !26
  call void @llvm.lifetime.start.p0(i64 8, ptr %6) #9
  %27 = load i32, ptr %2, align 2
  %28 = call i64 @b2CreateBody(i32 %27, ptr noundef %4)
  store i64 %28, ptr %6, align 4
  call void @llvm.lifetime.start.p0(i64 144, ptr %7) #9
  call void @b2MakeBox(ptr dead_on_unwind writable sret(%struct.b2Polygon) align 4 %7, float noundef 1.000000e+02, float noundef 1.000000e+00)
  call void @llvm.lifetime.start.p0(i64 72, ptr %8) #9
  call void @b2DefaultShapeDef(ptr dead_on_unwind writable sret(%struct.b2ShapeDef) align 8 %8)
  %29 = load i64, ptr %6, align 4
  %30 = call i64 @b2CreatePolygonShape(i64 %29, ptr noundef %8, ptr noundef %7)
  store i64 %30, ptr %9, align 4
  call void @llvm.lifetime.end.p0(i64 72, ptr %8) #9
  call void @llvm.lifetime.end.p0(i64 144, ptr %7) #9
  call void @llvm.lifetime.end.p0(i64 8, ptr %6) #9
  call void @llvm.lifetime.end.p0(i64 80, ptr %4) #9
  call void @llvm.lifetime.start.p0(i64 80, ptr %10) #9
  call void @b2DefaultBodyDef(ptr dead_on_unwind writable sret(%struct.b2BodyDef) align 8 %10)
  %31 = getelementptr inbounds nuw %struct.b2BodyDef, ptr %10, i32 0, i32 0
  store i32 2, ptr %31, align 8, !tbaa !19
  %32 = getelementptr inbounds nuw %struct.b2BodyDef, ptr %10, i32 0, i32 11
  store i8 0, ptr %32, align 8, !tbaa !33
  call void @llvm.lifetime.start.p0(i64 72, ptr %11) #9
  call void @b2DefaultShapeDef(ptr dead_on_unwind writable sret(%struct.b2ShapeDef) align 8 %11)
  %33 = getelementptr inbounds nuw %struct.b2ShapeDef, ptr %11, i32 0, i32 6
  store float 1.000000e+00, ptr %33, align 4, !tbaa !10
  call void @llvm.lifetime.start.p0(i64 4, ptr %12) #9
  store float 5.000000e-01, ptr %12, align 4, !tbaa !18
  call void @llvm.lifetime.start.p0(i64 144, ptr %13) #9
  %34 = load float, ptr %12, align 4, !tbaa !18
  call void @b2MakeSquare(ptr dead_on_unwind writable sret(%struct.b2Polygon) align 4 %13, float noundef %34)
  call void @llvm.lifetime.start.p0(i64 4, ptr %14) #9
  %35 = load float, ptr %12, align 4, !tbaa !18
  %36 = fmul float 1.000000e+00, %35
  store float %36, ptr %14, align 4, !tbaa !18
  call void @llvm.lifetime.start.p0(i64 4, ptr %15) #9
  store i32 0, ptr %15, align 4, !tbaa !3
  br label %37

37:                                               ; preds = %87, %1
  %38 = load i32, ptr %15, align 4, !tbaa !3
  %39 = load i32, ptr %3, align 4, !tbaa !3
  %40 = icmp slt i32 %38, %39
  br i1 %40, label %42, label %41

41:                                               ; preds = %37
  store i32 2, ptr %16, align 4
  call void @llvm.lifetime.end.p0(i64 4, ptr %15) #9
  br label %90

42:                                               ; preds = %37
  call void @llvm.lifetime.start.p0(i64 4, ptr %17) #9
  %43 = load i32, ptr %15, align 4, !tbaa !3
  %44 = sitofp i32 %43 to float
  %45 = fmul float 2.000000e+00, %44
  %46 = fadd float %45, 1.000000e+00
  %47 = load float, ptr %14, align 4, !tbaa !18
  %48 = fmul float %46, %47
  store float %48, ptr %17, align 4, !tbaa !18
  call void @llvm.lifetime.start.p0(i64 4, ptr %18) #9
  %49 = load i32, ptr %15, align 4, !tbaa !3
  store i32 %49, ptr %18, align 4, !tbaa !3
  br label %50

50:                                               ; preds = %83, %42
  %51 = load i32, ptr %18, align 4, !tbaa !3
  %52 = load i32, ptr %3, align 4, !tbaa !3
  %53 = icmp slt i32 %51, %52
  br i1 %53, label %55, label %54

54:                                               ; preds = %50
  store i32 5, ptr %16, align 4
  call void @llvm.lifetime.end.p0(i64 4, ptr %18) #9
  br label %86

55:                                               ; preds = %50
  call void @llvm.lifetime.start.p0(i64 4, ptr %19) #9
  %56 = load i32, ptr %15, align 4, !tbaa !3
  %57 = sitofp i32 %56 to float
  %58 = fadd float %57, 1.000000e+00
  %59 = load float, ptr %14, align 4, !tbaa !18
  %60 = fmul float %58, %59
  %61 = load i32, ptr %18, align 4, !tbaa !3
  %62 = load i32, ptr %15, align 4, !tbaa !3
  %63 = sub nsw i32 %61, %62
  %64 = sitofp i32 %63 to float
  %65 = fmul float 2.000000e+00, %64
  %66 = load float, ptr %14, align 4, !tbaa !18
  %67 = fmul float %65, %66
  %68 = fadd float %60, %67
  %69 = load float, ptr %12, align 4, !tbaa !18
  %70 = load i32, ptr %3, align 4, !tbaa !3
  %71 = sitofp i32 %70 to float
  %72 = fmul float %69, %71
  %73 = fsub float %68, %72
  store float %73, ptr %19, align 4, !tbaa !18
  %74 = getelementptr inbounds nuw %struct.b2BodyDef, ptr %10, i32 0, i32 1
  %75 = getelementptr inbounds nuw %struct.b2Vec2, ptr %20, i32 0, i32 0
  %76 = load float, ptr %19, align 4, !tbaa !18
  store float %76, ptr %75, align 4, !tbaa !24
  %77 = getelementptr inbounds nuw %struct.b2Vec2, ptr %20, i32 0, i32 1
  %78 = load float, ptr %17, align 4, !tbaa !18
  store float %78, ptr %77, align 4, !tbaa !25
  call void @llvm.memcpy.p0.p0.i64(ptr align 4 %74, ptr align 4 %20, i64 8, i1 false), !tbaa.struct !26
  call void @llvm.lifetime.start.p0(i64 8, ptr %21) #9
  %79 = load i32, ptr %2, align 2
  %80 = call i64 @b2CreateBody(i32 %79, ptr noundef %10)
  store i64 %80, ptr %21, align 4
  %81 = load i64, ptr %21, align 4
  %82 = call i64 @b2CreatePolygonShape(i64 %81, ptr noundef %11, ptr noundef %13)
  store i64 %82, ptr %22, align 4
  call void @llvm.lifetime.end.p0(i64 8, ptr %21) #9
  call void @llvm.lifetime.end.p0(i64 4, ptr %19) #9
  br label %83

83:                                               ; preds = %55
  %84 = load i32, ptr %18, align 4, !tbaa !3
  %85 = add nsw i32 %84, 1
  store i32 %85, ptr %18, align 4, !tbaa !3
  br label %50, !llvm.loop !34

86:                                               ; preds = %54
  call void @llvm.lifetime.end.p0(i64 4, ptr %17) #9
  br label %87

87:                                               ; preds = %86
  %88 = load i32, ptr %15, align 4, !tbaa !3
  %89 = add nsw i32 %88, 1
  store i32 %89, ptr %15, align 4, !tbaa !3
  br label %37, !llvm.loop !35

90:                                               ; preds = %41
  call void @llvm.lifetime.end.p0(i64 4, ptr %14) #9
  call void @llvm.lifetime.end.p0(i64 144, ptr %13) #9
  call void @llvm.lifetime.end.p0(i64 4, ptr %12) #9
  call void @llvm.lifetime.end.p0(i64 72, ptr %11) #9
  call void @llvm.lifetime.end.p0(i64 80, ptr %10) #9
  call void @llvm.lifetime.end.p0(i64 4, ptr %3) #9
  ret void
}