; Function Attrs: nounwind uwtable
define void @CreateLargePyramid(i32 %0) local_unnamed_addr #0 {
  %2 = alloca %struct.b2BodyDef, align 8
  %3 = alloca %struct.b2Polygon, align 4
  %4 = alloca %struct.b2ShapeDef, align 8
  %5 = alloca %struct.b2BodyDef, align 8
  %6 = alloca %struct.b2ShapeDef, align 8
  %7 = alloca %struct.b2Polygon, align 4
  tail call void @b2World_EnableSleeping(i32 %0, i1 noundef zeroext false) #8
  call void @llvm.lifetime.start.p0(i64 80, ptr nonnull %2) #8
  call void @b2DefaultBodyDef(ptr dead_on_unwind nonnull writable sret(%struct.b2BodyDef) align 8 %2) #8
  %8 = getelementptr inbounds nuw i8, ptr %2, i64 4
  store float 0.000000e+00, ptr %8, align 4, !tbaa !20
  %.sroa.221.0..sroa_idx = getelementptr inbounds nuw i8, ptr %2, i64 8
  store float -1.000000e+00, ptr %.sroa.221.0..sroa_idx, align 8, !tbaa !20
  %9 = call i64 @b2CreateBody(i32 %0, ptr noundef nonnull %2) #8
  call void @llvm.lifetime.start.p0(i64 144, ptr nonnull %3) #8
  call void @b2MakeBox(ptr dead_on_unwind nonnull writable sret(%struct.b2Polygon) align 4 %3, float noundef 1.000000e+02, float noundef 1.000000e+00) #8
  call void @llvm.lifetime.start.p0(i64 72, ptr nonnull %4) #8
  call void @b2DefaultShapeDef(ptr dead_on_unwind nonnull writable sret(%struct.b2ShapeDef) align 8 %4) #8
  %10 = call i64 @b2CreatePolygonShape(i64 %9, ptr noundef nonnull %4, ptr noundef nonnull %3) #8
  call void @llvm.lifetime.end.p0(i64 72, ptr nonnull %4) #8
  call void @llvm.lifetime.end.p0(i64 144, ptr nonnull %3) #8
  call void @llvm.lifetime.end.p0(i64 80, ptr nonnull %2) #8
  call void @llvm.lifetime.start.p0(i64 80, ptr nonnull %5) #8
  call void @b2DefaultBodyDef(ptr dead_on_unwind nonnull writable sret(%struct.b2BodyDef) align 8 %5) #8
  store i32 2, ptr %5, align 8, !tbaa !15
  %11 = getelementptr inbounds nuw i8, ptr %5, i64 64
  store i8 0, ptr %11, align 8, !tbaa !24
  call void @llvm.lifetime.start.p0(i64 72, ptr nonnull %6) #8
  call void @b2DefaultShapeDef(ptr dead_on_unwind nonnull writable sret(%struct.b2ShapeDef) align 8 %6) #8
  %12 = getelementptr inbounds nuw i8, ptr %6, i64 28
  store float 1.000000e+00, ptr %12, align 4, !tbaa !3
  call void @llvm.lifetime.start.p0(i64 144, ptr nonnull %7) #8
  call void @b2MakeSquare(ptr dead_on_unwind nonnull writable sret(%struct.b2Polygon) align 4 %7, float noundef 5.000000e-01) #8
  %13 = getelementptr inbounds nuw i8, ptr %5, i64 4
  %.sroa.2.0..sroa_idx = getelementptr inbounds nuw i8, ptr %5, i64 8
  br label %15

14:                                               ; preds = %22
  call void @llvm.lifetime.end.p0(i64 144, ptr nonnull %7) #8
  call void @llvm.lifetime.end.p0(i64 72, ptr nonnull %6) #8
  call void @llvm.lifetime.end.p0(i64 80, ptr nonnull %5) #8
  ret void

15:                                               ; preds = %1, %22
  %.030 = phi i32 [ 0, %1 ], [ %23, %22 ]
  %16 = uitofp nneg i32 %.030 to float
  %17 = fmul float %16, 2.000000e+00
  %18 = fadd float %17, 1.000000e+00
  %19 = fmul float %18, 5.000000e-01
  %20 = fadd float %16, 1.000000e+00
  %21 = fmul float %20, 5.000000e-01
  br label %24

22:                                               ; preds = %24
  %23 = add nuw nsw i32 %.030, 1
  %exitcond31.not = icmp eq i32 %23, 100
  br i1 %exitcond31.not, label %14, label %15, !llvm.loop !25

24:                                               ; preds = %15, %24
  %.02829 = phi i32 [ %.030, %15 ], [ %33, %24 ]
  %25 = sub nuw nsw i32 %.02829, %.030
  %26 = uitofp nneg i32 %25 to float
  %27 = fmul float %26, 2.000000e+00
  %28 = fmul float %27, 5.000000e-01
  %29 = fadd float %21, %28
  %30 = fadd float %29, -5.000000e+01
  store float %30, ptr %13, align 4, !tbaa !20
  store float %19, ptr %.sroa.2.0..sroa_idx, align 8, !tbaa !20
  %31 = call i64 @b2CreateBody(i32 %0, ptr noundef nonnull %5) #8
  %32 = call i64 @b2CreatePolygonShape(i64 %31, ptr noundef nonnull %6, ptr noundef nonnull %7) #8
  %33 = add nuw nsw i32 %.02829, 1
  %exitcond.not = icmp eq i32 %33, 100
  br i1 %exitcond.not, label %22, label %24, !llvm.loop !26
}